target datalayout = "e-m:e-p270:32:32-p271:32:32-p272:64:64-i64:64-i128:128-f80:128-n8:16:32:64-S128"
target triple = "x86_64-pc-linux-gnu"

%"struct.gmx::EnumerationArray.58" = type { [7 x %"class.std::vector.59"] }
%"class.std::vector.59" = type { %"struct.std::_Vector_base.60" }
%"struct.std::_Vector_base.60" = type { %"struct.std::_Vector_base<double, std::allocator<double>>::_Vector_impl" }
%"struct.std::_Vector_base<double, std::allocator<double>>::_Vector_impl" = type { %"struct.std::_Vector_base<double, std::allocator<double>>::_Vector_impl_data" }
%"struct.std::_Vector_base<double, std::allocator<double>>::_Vector_impl_data" = type { ptr, ptr, ptr }

; Function Attrs: mustprogress nounwind uwtable
define linkonce_odr noundef i64 @_ZNK3gmx16EnumerationArrayI34FreeEnergyPerturbationCouplingTypeSt6vectorIdSaIdEELS1_7EE4sizeEv(ptr noundef nonnull align 8 dereferenceable(168) %0) #2 comdat align 2 {
  %2 = alloca ptr, align 8
  store ptr %0, ptr %2, align 8, !tbaa !338
  ret i64 7
}

; Function Attrs: mustprogress nounwind uwtable
define linkonce_odr noundef i64 @_ZNKSt6vectorIdSaIdEE4sizeEv(ptr noundef nonnull align 8 dereferenceable(24) %0) #2 comdat align 2 {
  %2 = alloca ptr, align 8
  store ptr %0, ptr %2, align 8, !tbaa !340
  %3 = load ptr, ptr %2, align 8
  %4 = getelementptr inbounds nuw %"struct.std::_Vector_base.60", ptr %3, i32 0, i32 0
  %5 = getelementptr inbounds nuw %"struct.std::_Vector_base<double, std::allocator<double>>::_Vector_impl_data", ptr %4, i32 0, i32 1
  %6 = load ptr, ptr %5, align 8, !tbaa !353
  %7 = getelementptr inbounds nuw %"struct.std::_Vector_base.60", ptr %3, i32 0, i32 0
  %8 = getelementptr inbounds nuw %"struct.std::_Vector_base<double, std::allocator<double>>::_Vector_impl_data", ptr %7, i32 0, i32 0
  %9 = load ptr, ptr %8, align 8, !tbaa !350
  %10 = ptrtoint ptr %6 to i64
  %11 = ptrtoint ptr %9 to i64
  %12 = sub i64 %10, %11
  %13 = sdiv exact i64 %12, 8
  ret i64 %13
}

; Function Attrs: inlinehint mustprogress nounwind uwtable
define linkonce_odr noundef double @_ZSt3absd(double noundef %0) #4 comdat {
  %2 = alloca double, align 8
  store double %0, ptr %2, align 8, !tbaa !848
  %3 = load double, ptr %2, align 8, !tbaa !848
  %4 = call double @llvm.fabs.f64(double %3)
  ret double %4
}

; Function Attrs: mustprogress nounwind uwtable
define linkonce_odr noundef nonnull align 8 dereferenceable(8) ptr @_ZNKSt6vectorIdSaIdEEixEm(ptr noundef nonnull align 8 dereferenceable(24) %0, i64 noundef %1) #2 comdat align 2 {
  %3 = alloca ptr, align 8
  %4 = alloca i64, align 8
  store ptr %0, ptr %3, align 8, !tbaa !340
  store i64 %1, ptr %4, align 8, !tbaa !21
  %5 = load ptr, ptr %3, align 8
  %6 = getelementptr inbounds nuw %"struct.std::_Vector_base.60", ptr %5, i32 0, i32 0
  %7 = getelementptr inbounds nuw %"struct.std::_Vector_base<double, std::allocator<double>>::_Vector_impl_data", ptr %6, i32 0, i32 0
  %8 = load ptr, ptr %7, align 8, !tbaa !350
  %9 = load i64, ptr %4, align 8, !tbaa !21
  %10 = getelementptr inbounds nuw double, ptr %8, i64 %9
  ret ptr %10
}

; Function Attrs: mustprogress uwtable
define linkonce_odr noundef ptr @_ZNK3gmx16EnumerationArrayI34FreeEnergyPerturbationCouplingTypeSt6vectorIdSaIdEELS1_7EE3endEv(ptr noundef nonnull align 8 dereferenceable(168) %0) #3 comdat align 2 {
  %2 = alloca ptr, align 8
  store ptr %0, ptr %2, align 8, !tbaa !338
  %3 = load ptr, ptr %2, align 8
  %4 = getelementptr inbounds nuw %"struct.gmx::EnumerationArray.58", ptr %3, i32 0, i32 0
  %5 = call noundef i64 @_ZNK3gmx16EnumerationArrayI34FreeEnergyPerturbationCouplingTypeSt6vectorIdSaIdEELS1_7EE4sizeEv(ptr noundef nonnull align 8 dereferenceable(168) %3)
  %6 = getelementptr inbounds nuw [7 x %"class.std::vector.59"], ptr %4, i64 0, i64 %5
  ret ptr %6
}

; Function Attrs: mustprogress nounwind uwtable
define linkonce_odr noundef ptr @_ZNK3gmx16EnumerationArrayI34FreeEnergyPerturbationCouplingTypeSt6vectorIdSaIdEELS1_7EE5beginEv(ptr noundef nonnull align 8 dereferenceable(168) %0) #2 comdat align 2 {
  %2 = alloca ptr, align 8
  store ptr %0, ptr %2, align 8, !tbaa !338
  %3 = load ptr, ptr %2, align 8
  %4 = getelementptr inbounds nuw %"struct.gmx::EnumerationArray.58", ptr %3, i32 0, i32 0
  %5 = getelementptr inbounds [7 x %"class.std::vector.59"], ptr %4, i64 0, i64 0
  ret ptr %5
}

; Function Attrs: mustprogress nounwind uwtable
define linkonce_odr noundef i64 @_ZN3gmx5ssizeISt6vectorIdSaIdEEEElRKT_(ptr noundef nonnull align 8 dereferenceable(24) %0) #2 comdat {
  %2 = alloca ptr, align 8
  store ptr %0, ptr %2, align 8, !tbaa !340
  %3 = load ptr, ptr %2, align 8, !tbaa !340
  %4 = call noundef i64 @_ZNKSt6vectorIdSaIdEE4sizeEv(ptr noundef nonnull align 8 dereferenceable(24) %3) #5
  ret i64 %4
}

; Function Attrs: mustprogress nounwind uwtable
define linkonce_odr noundef nonnull align 8 dereferenceable(24) ptr @_ZNK3gmx16EnumerationArrayI34FreeEnergyPerturbationCouplingTypeSt6vectorIdSaIdEELS1_7EEixES1_(ptr noundef nonnull align 8 dereferenceable(168) %0, i32 noundef %1) #2 comdat align 2 {
  %3 = alloca ptr, align 8
  %4 = alloca i32, align 4
  store ptr %0, ptr %3, align 8, !tbaa !338
  store i32 %1, ptr %4, align 4, !tbaa !846
  %5 = load ptr, ptr %3, align 8
  %6 = getelementptr inbounds nuw %"struct.gmx::EnumerationArray.58", ptr %5, i32 0, i32 0
  %7 = load i32, ptr %4, align 4, !tbaa !846
  %8 = sext i32 %7 to i64
  %9 = getelementptr inbounds nuw [7 x %"class.std::vector.59"], ptr %6, i64 0, i64 %8
  ret ptr %9
}

; Function Attrs: mustprogress uwtable
define noundef zeroext i1 @_Z26fepLambdasChangeAtSameRateRKN3gmx16EnumerationArrayI34FreeEnergyPerturbationCouplingTypeSt6vectorIdSaIdEELS1_7EEE(ptr noundef nonnull align 8 dereferenceable(168) %0) #3 {
  %2 = alloca i1, align 1
  %3 = alloca ptr, align 8
  %4 = alloca i32, align 4
  %5 = alloca i32, align 4
  %6 = alloca i32, align 4
  %7 = alloca double, align 8
  %8 = alloca ptr, align 8
  %9 = alloca ptr, align 8
  %10 = alloca ptr, align 8
  %11 = alloca ptr, align 8
  %12 = alloca double, align 8
  store ptr %0, ptr %3, align 8, !tbaa !338
  call void @llvm.lifetime.start.p0(i64 4, ptr %4) #5
  %13 = load ptr, ptr %3, align 8, !tbaa !338
  %14 = call noundef nonnull align 8 dereferenceable(24) ptr @_ZNK3gmx16EnumerationArrayI34FreeEnergyPerturbationCouplingTypeSt6vectorIdSaIdEELS1_7EEixES1_(ptr noundef nonnull align 8 dereferenceable(168) %13, i32 noundef 0)
  %15 = call noundef i64 @_ZN3gmx5ssizeISt6vectorIdSaIdEEEElRKT_(ptr noundef nonnull align 8 dereferenceable(24) %14)
  %16 = trunc i64 %15 to i32
  store i32 %16, ptr %4, align 4, !tbaa !212
  call void @llvm.lifetime.start.p0(i64 4, ptr %5) #5
  store i32 0, ptr %5, align 4, !tbaa !212
  br label %17

17:                                               ; preds = %79, %1
  %18 = load i32, ptr %5, align 4, !tbaa !212
  %19 = load i32, ptr %4, align 4, !tbaa !212
  %20 = sub nsw i32 %19, 1
  %21 = icmp slt i32 %18, %20
  br i1 %21, label %23, label %22

22:                                               ; preds = %17
  store i32 2, ptr %6, align 4
  br label %82

23:                                               ; preds = %17
  call void @llvm.lifetime.start.p0(i64 8, ptr %7) #5
  store double 0.000000e+00, ptr %7, align 8, !tbaa !848
  call void @llvm.lifetime.start.p0(i64 8, ptr %8) #5
  %24 = load ptr, ptr %3, align 8, !tbaa !338
  store ptr %24, ptr %8, align 8, !tbaa !338
  call void @llvm.lifetime.start.p0(i64 8, ptr %9) #5
  %25 = load ptr, ptr %8, align 8, !tbaa !338
  %26 = call noundef ptr @_ZNK3gmx16EnumerationArrayI34FreeEnergyPerturbationCouplingTypeSt6vectorIdSaIdEELS1_7EE5beginEv(ptr noundef nonnull align 8 dereferenceable(168) %25)
  store ptr %26, ptr %9, align 8, !tbaa !340
  call void @llvm.lifetime.start.p0(i64 8, ptr %10) #5
  %27 = load ptr, ptr %8, align 8, !tbaa !338
  %28 = call noundef ptr @_ZNK3gmx16EnumerationArrayI34FreeEnergyPerturbationCouplingTypeSt6vectorIdSaIdEELS1_7EE3endEv(ptr noundef nonnull align 8 dereferenceable(168) %27)
  store ptr %28, ptr %10, align 8, !tbaa !340
  br label %29

29:                                               ; preds = %70, %23
  %30 = load ptr, ptr %9, align 8, !tbaa !340
  %31 = load ptr, ptr %10, align 8, !tbaa !340
  %32 = icmp ne ptr %30, %31
  br i1 %32, label %34, label %33

33:                                               ; preds = %29
  store i32 5, ptr %6, align 4
  br label %73

34:                                               ; preds = %29
  call void @llvm.lifetime.start.p0(i64 8, ptr %11) #5
  %35 = load ptr, ptr %9, align 8, !tbaa !340
  store ptr %35, ptr %11, align 8, !tbaa !340
  call void @llvm.lifetime.start.p0(i64 8, ptr %12) #5
  %36 = load ptr, ptr %11, align 8, !tbaa !340
  %37 = load i32, ptr %5, align 4, !tbaa !212
  %38 = add nsw i32 %37, 1
  %39 = sext i32 %38 to i64
  %40 = call noundef nonnull align 8 dereferenceable(8) ptr @_ZNKSt6vectorIdSaIdEEixEm(ptr noundef nonnull align 8 dereferenceable(24) %36, i64 noundef %39) #5
  %41 = load double, ptr %40, align 8, !tbaa !848
  %42 = load ptr, ptr %11, align 8, !tbaa !340
  %43 = load i32, ptr %5, align 4, !tbaa !212
  %44 = sext i32 %43 to i64
  %45 = call noundef nonnull align 8 dereferenceable(8) ptr @_ZNKSt6vectorIdSaIdEEixEm(ptr noundef nonnull align 8 dereferenceable(24) %42, i64 noundef %44) #5
  %46 = load double, ptr %45, align 8, !tbaa !848
  %47 = fsub double %41, %46
  %48 = call noundef double @_ZSt3absd(double noundef %47)
  store double %48, ptr %12, align 8, !tbaa !848
  %49 = load double, ptr %12, align 8, !tbaa !848
  %50 = fcmp ogt double %49, 0x3E80000000000000
  br i1 %50, label %51, label %63

51:                                               ; preds = %34
  %52 = load double, ptr %7, align 8, !tbaa !848
  %53 = fcmp ogt double %52, 0x3E80000000000000
  br i1 %53, label %54, label %61

54:                                               ; preds = %51
  %55 = load double, ptr %12, align 8, !tbaa !848
  %56 = load double, ptr %7, align 8, !tbaa !848
  %57 = fsub double %55, %56
  %58 = call noundef double @_ZSt3absd(double noundef %57)
  %59 = fcmp ogt double %58, 0x3E80000000000000
  br i1 %59, label %60, label %61

60:                                               ; preds = %54
  store i1 false, ptr %2, align 1
  store i32 1, ptr %6, align 4
  br label %64

61:                                               ; preds = %54, %51
  %62 = load double, ptr %12, align 8, !tbaa !848
  store double %62, ptr %7, align 8, !tbaa !848
  br label %63

63:                                               ; preds = %61, %34
  store i32 0, ptr %6, align 4
  br label %64

64:                                               ; preds = %63, %60
  call void @llvm.lifetime.end.p0(i64 8, ptr %12) #5
  %65 = load i32, ptr %6, align 4
  switch i32 %65, label %67 [
    i32 0, label %66
  ]

66:                                               ; preds = %64
  store i32 0, ptr %6, align 4
  br label %67

67:                                               ; preds = %66, %64
  call void @llvm.lifetime.end.p0(i64 8, ptr %11) #5
  %68 = load i32, ptr %6, align 4
  switch i32 %68, label %73 [
    i32 0, label %69
  ]

69:                                               ; preds = %67
  br label %70

70:                                               ; preds = %69
  %71 = load ptr, ptr %9, align 8, !tbaa !340
  %72 = getelementptr inbounds nuw %"class.std::vector.59", ptr %71, i32 1
  store ptr %72, ptr %9, align 8, !tbaa !340
  br label %29

73:                                               ; preds = %67, %33
  call void @llvm.lifetime.end.p0(i64 8, ptr %10) #5
  call void @llvm.lifetime.end.p0(i64 8, ptr %9) #5
  call void @llvm.lifetime.end.p0(i64 8, ptr %8) #5
  %74 = load i32, ptr %6, align 4
  switch i32 %74, label %76 [
    i32 5, label %75
  ]

75:                                               ; preds = %73
  store i32 0, ptr %6, align 4
  br label %76

76:                                               ; preds = %75, %73
  call void @llvm.lifetime.end.p0(i64 8, ptr %7) #5
  %77 = load i32, ptr %6, align 4
  switch i32 %77, label %82 [
    i32 0, label %78
  ]

78:                                               ; preds = %76
  br label %79

79:                                               ; preds = %78
  %80 = load i32, ptr %5, align 4, !tbaa !212
  %81 = add nsw i32 %80, 1
  store i32 %81, ptr %5, align 4, !tbaa !212
  br label %17, !llvm.loop !1052

82:                                               ; preds = %76, %22
  call void @llvm.lifetime.end.p0(i64 4, ptr %5) #5
  %83 = load i32, ptr %6, align 4
  switch i32 %83, label %85 [
    i32 2, label %84
  ]

84:                                               ; preds = %82
  store i1 true, ptr %2, align 1
  store i32 1, ptr %6, align 4
  br label %85

85:                                               ; preds = %84, %82
  call void @llvm.lifetime.end.p0(i64 4, ptr %4) #5
  %86 = load i1, ptr %2, align 1
  ret i1 %86
}