; Function Attrs: mustprogress nofree norecurse nosync nounwind willreturn memory(read, inaccessiblemem: none) uwtable
define noundef zeroext i1 @_Z26fepLambdasChangeAtSameRateRKN3gmx16EnumerationArrayI34FreeEnergyPerturbationCouplingTypeSt6vectorIdSaIdEELS1_7EEE(ptr noundef nonnull readonly align 8 captures(none) dereferenceable(168) %0) local_unnamed_addr #17 {
  %2 = getelementptr inbounds nuw i8, ptr %0, i64 8
  %3 = load ptr, ptr %2, align 8, !tbaa !586
  %4 = load ptr, ptr %0, align 8, !tbaa !155
  %5 = ptrtoint ptr %3 to i64
  %6 = ptrtoint ptr %4 to i64
  %7 = sub i64 %5, %6
  %8 = lshr exact i64 %7, 3
  %9 = trunc i64 %8 to i32
  %.not3950 = icmp slt i32 %9, 2
  br i1 %.not3950, label %.critedge41, label %.preheader.preheader

.preheader.preheader:                             ; preds = %1
  %10 = add nuw nsw i64 %8, 4294967295
  %wide.trip.count = and i64 %10, 4294967295
  br label %.preheader

.preheader:                                       ; preds = %.preheader.preheader, %.critedge
  %indvars.iv = phi i64 [ 0, %.preheader.preheader ], [ %indvars.iv.next, %.critedge ]
  br label %11

11:                                               ; preds = %.preheader, %26
  %.034.idx49 = phi i64 [ 0, %.preheader ], [ %.034.add, %26 ]
  %.03548 = phi double [ 0.000000e+00, %.preheader ], [ %.237.ph, %26 ]
  %.034.ptr = getelementptr inbounds nuw i8, ptr %0, i64 %.034.idx49
  %12 = load ptr, ptr %.034.ptr, align 8, !tbaa !155
  %13 = getelementptr inbounds nuw double, ptr %12, i64 %indvars.iv
  %14 = getelementptr inbounds nuw i8, ptr %13, i64 8
  %15 = load double, ptr %14, align 8, !tbaa !461
  %16 = load double, ptr %13, align 8, !tbaa !461
  %17 = fsub double %15, %16
  %18 = tail call noundef double @llvm.fabs.f64(double %17)
  %19 = fcmp ogt double %18, 0x3E80000000000000
  br i1 %19, label %20, label %26

20:                                               ; preds = %11
  %21 = fcmp ogt double %.03548, 0x3E80000000000000
  br i1 %21, label %22, label %26

22:                                               ; preds = %20
  %23 = fsub double %18, %.03548
  %24 = tail call noundef double @llvm.fabs.f64(double %23)
  %25 = fcmp ogt double %24, 0x3E80000000000000
  br i1 %25, label %.critedge41, label %26

26:                                               ; preds = %22, %20, %11
  %.237.ph = phi double [ %18, %20 ], [ %.03548, %11 ], [ %18, %22 ]
  %.034.add = add nuw nsw i64 %.034.idx49, 24
  %.not = icmp eq i64 %.034.add, 168
  br i1 %.not, label %.critedge, label %11

.critedge:                                        ; preds = %26
  %indvars.iv.next = add nuw nsw i64 %indvars.iv, 1
  %exitcond.not = icmp eq i64 %indvars.iv.next, %wide.trip.count
  br i1 %exitcond.not, label %.critedge41, label %.preheader, !llvm.loop !587

.critedge41:                                      ; preds = %.critedge, %22, %1
  %.not3947 = phi i1 [ true, %1 ], [ false, %22 ], [ true, %.critedge ]
  ret i1 %.not3947
}